Certificate:
    Data:
        Version: 1 (0x0)
        Serial Number: 20 (0x14)
    Signature Algorithm: md5WithRSAEncryption
        Issuer: O=NOVA ROOT, L=Mountain View, ST=California, C=US
        Validity
            Not Before: Jan 27 19:30:56 2015 GMT
            Not After : Jan 27 19:30:56 2016 GMT
        Subject: C=US, ST=California, O=OpenStack, OU=NovaDev, CN=6f178371f8aa4609-9f9a11c1a0654c7f-2015-01-27T19:30:55Z
        Subject Public Key Info:
            Public Key Algorithm: rsaEncryption
                Public-Key: (1024 bit)
                Modulus:
                    00:cf:de:08:df:a5:ab:6f:8a:ab:aa:36:9f:18:aa:
                    36:7e:ae:86:84:fc:6e:c9:e3:1a:c2:9f:c2:38:51:
                    c7:76:76:7e:55:7c:42:eb:24:78:0d:26:1e:7f:4c:
                    e0:83:a8:19:fe:a6:d6:3d:6b:81:5b:d8:d4:64:a5:
                    5a:00:2d:cc:45:2c:e5:da:fb:68:10:c6:2a:20:16:
                    d0:ed:18:91:ea:e8:f3:20:76:3a:b1:4f:62:83:e5:
                    6b:1a:fd:33:2c:e4:63:17:66:5b:54:5d:7e:dc:f1:
                    dc:b1:0b:72:02:c1:fa:92:84:3d:2b:82:dd:1d:8a:
                    d3:4e:0b:49:23:65:31:f4:5d
                Exponent: 65537 (0x10001)
    Signature Algorithm: md5WithRSAEncryption
         09:6a:8a:ca:2c:59:89:5a:e4:3c:c3:19:37:48:ea:48:fd:fa:
         a3:b6:12:12:f9:d1:c8:c5:f0:8c:c4:06:32:fa:24:e4:e8:c3:
         79:eb:aa:25:7f:ac:03:65:60:38:70:95:8b:80:d2:d5:03:67:
         ce:b7:3b:a8:09:d2:8f:10:95:e2:77:fe:9d:5c:64:4e:2f:64:
         af:00:5a:ae:74:7f:8e:8a:58:72:af:5b:8c:25:f3:ad:ab:79:
         d6:ba:21:2f:dc:71:4b:05:32:2c:8d:54:39:89:6e:22:ea:ad:
         eb:74:08:87:b5:36:ba:a6:6e:65:73:44:43:53:14:fe:f7:05:
         90:d8
-----BEGIN CERTIFICATE-----
MIICRzCCAbACARQwDQYJKoZIhvcNAQEEBQAwTjESMBAGA1UEChMJTk9WQSBST09U
MRYwFAYDVQQHEw1Nb3VudGFpbiBWaWV3MRMwEQYDVQQIEwpDYWxpZm9ybmlhMQsw
CQYDVQQGEwJVUzAeFw0xNTAxMjcxOTMwNTZaFw0xNjAxMjcxOTMwNTZaMIGJMQsw
CQYDVQQGEwJVUzETMBEGA1UECAwKQ2FsaWZvcm5pYTESMBAGA1UECgwJT3BlblN0
YWNrMRAwDgYDVQQLDAdOb3ZhRGV2MT8wPQYDVQQDDDY2ZjE3ODM3MWY4YWE0NjA5
LTlmOWExMWMxYTA2NTRjN2YtMjAxNS0wMS0yN1QxOTozMDo1NVowgZ8wDQYJKoZI
hvcNAQEBBQADgY0AMIGJAoGBAM/eCN+lq2+Kq6o2nxiqNn6uhoT8bsnjGsKfwjhR
x3Z2flV8QuskeA0mHn9M4IOoGf6m1j1rgVvY1GSlWgAtzEUs5dr7aBDGKiAW0O0Y
kero8yB2OrFPYoPlaxr9MyzkYxdmW1Rdftzx3LELcgLB+pKEPSuC3R2K004LSSNl
MfRdAgMBAAEwDQYJKoZIhvcNAQEEBQADgYEACWqKyixZiVrkPMMZN0jqSP36o7YS
EvnRyMXwjMQGMvok5OjDeeuqJX+sA2VgOHCVi4DS1QNnzrc7qAnSjxCV4nf+nVxk
Ti9krwBarnR/jopYcq9bjCXzrat51rohL9xxSwUyLI1UOYluIuqt63QIh7U2uqZu
ZXNEQ1MU/vcFkNg=
-----END CERTIFICATE-----
