Certificate:
    Data:
        Version: 1 (0x0)
        Serial Number: 18 (0x12)
    Signature Algorithm: md5WithRSAEncryption
        Issuer: O=NOVA ROOT, L=Mountain View, ST=California, C=US
        Validity
            Not Before: Jan 27 19:30:48 2015 GMT
            Not After : Jan 27 19:30:48 2016 GMT
        Subject: C=US, ST=California, O=OpenStack, OU=NovaDev, CN=24b009081fc240fe-0c71ab741f9d42f5-2015-01-27T19:30:48Z
        Subject Public Key Info:
            Public Key Algorithm: rsaEncryption
                Public-Key: (1024 bit)
                Modulus:
                    00:a2:a6:28:59:60:8a:05:9d:9e:14:2a:b0:2d:4a:
                    0f:bb:12:d7:b1:09:3c:01:c9:bb:0a:d4:aa:d9:c0:
                    ca:8f:52:ce:7a:81:64:63:6b:a3:91:0a:a7:e8:83:
                    81:c7:81:73:8f:e3:7a:33:70:40:15:f0:38:52:d4:
                    ca:ef:f7:ed:81:25:28:c1:69:e7:c1:b7:b6:6e:12:
                    a4:5c:24:4e:27:c2:0d:07:ee:2d:55:30:d3:0c:89:
                    9c:80:9b:70:9d:90:e6:51:54:74:67:4a:3d:1d:39:
                    59:26:a7:d5:0a:3a:f5:4a:19:30:cb:e5:93:ed:22:
                    d6:4f:12:17:08:55:eb:f1:0f
                Exponent: 65537 (0x10001)
    Signature Algorithm: md5WithRSAEncryption
         3e:9c:81:17:19:7e:b6:1d:4d:b0:93:9b:33:f4:11:99:2b:ab:
         81:c2:55:43:c2:8d:5e:5e:d4:01:d7:8c:07:09:58:23:b6:1f:
         2f:b5:58:fd:93:8b:95:90:79:93:1b:89:fa:7a:cb:dd:06:20:
         a7:9d:f0:e7:ee:47:ee:ba:79:fd:41:e1:7b:81:83:51:4b:1b:
         31:24:f4:f3:5a:36:02:ed:9b:84:80:66:93:b8:70:b4:c6:71:
         eb:9b:07:b6:cd:f9:fc:10:a8:a3:e3:d2:d7:4d:de:9d:a7:6e:
         43:a5:f7:e5:d9:d3:4a:cf:8f:2a:43:57:89:40:17:81:2f:3e:
         38:e1
-----BEGIN CERTIFICATE-----
MIICRzCCAbACARIwDQYJKoZIhvcNAQEEBQAwTjESMBAGA1UEChMJTk9WQSBST09U
MRYwFAYDVQQHEw1Nb3VudGFpbiBWaWV3MRMwEQYDVQQIEwpDYWxpZm9ybmlhMQsw
CQYDVQQGEwJVUzAeFw0xNTAxMjcxOTMwNDhaFw0xNjAxMjcxOTMwNDhaMIGJMQsw
CQYDVQQGEwJVUzETMBEGA1UECAwKQ2FsaWZvcm5pYTESMBAGA1UECgwJT3BlblN0
YWNrMRAwDgYDVQQLDAdOb3ZhRGV2MT8wPQYDVQQDDDYyNGIwMDkwODFmYzI0MGZl
LTBjNzFhYjc0MWY5ZDQyZjUtMjAxNS0wMS0yN1QxOTozMDo0OFowgZ8wDQYJKoZI
hvcNAQEBBQADgY0AMIGJAoGBAKKmKFlgigWdnhQqsC1KD7sS17EJPAHJuwrUqtnA
yo9SznqBZGNro5EKp+iDgceBc4/jejNwQBXwOFLUyu/37YElKMFp58G3tm4SpFwk
TifCDQfuLVUw0wyJnICbcJ2Q5lFUdGdKPR05WSan1Qo69UoZMMvlk+0i1k8SFwhV
6/EPAgMBAAEwDQYJKoZIhvcNAQEEBQADgYEAPpyBFxl+th1NsJObM/QRmSurgcJV
Q8KNXl7UAdeMBwlYI7YfL7VY/ZOLlZB5kxuJ+nrL3QYgp53w5+5H7rp5/UHhe4GD
UUsbMST081o2Au2bhIBmk7hwtMZx65sHts35/BCoo+PS103enaduQ6X35dnTSs+P
KkNXiUAXgS8+OOE=
-----END CERTIFICATE-----
