Certificate:
    Data:
        Version: 1 (0x0)
        Serial Number: 19 (0x13)
    Signature Algorithm: md5WithRSAEncryption
        Issuer: O=NOVA ROOT, L=Mountain View, ST=California, C=US
        Validity
            Not Before: Jan 27 19:30:51 2015 GMT
            Not After : Jan 27 19:30:51 2016 GMT
        Subject: C=US, ST=California, O=OpenStack, OU=NovaDev, CN=24b009081fc240fe-9f9a11c1a0654c7f-2015-01-27T19:30:51Z
        Subject Public Key Info:
            Public Key Algorithm: rsaEncryption
                Public-Key: (1024 bit)
                Modulus:
                    00:c9:a4:c9:c5:4b:93:cb:5a:df:24:b0:4d:6a:bd:
                    d3:9e:5d:8b:ef:19:30:bb:e1:13:81:d3:7d:b5:c4:
                    ee:f2:df:6f:0c:17:af:d2:82:40:45:12:48:5c:f3:
                    1c:ce:04:f8:89:e6:44:f7:89:af:21:7f:d1:17:9a:
                    20:d0:f7:a4:cf:73:65:fe:89:bf:65:68:2e:5b:c7:
                    7d:dd:ea:76:58:d8:bd:1a:5c:d0:3f:ae:36:95:ef:
                    89:6c:10:bc:1a:46:b3:61:8a:53:21:0f:b7:12:d5:
                    c7:fd:20:9a:34:f8:3d:1a:7f:84:60:8f:02:ea:a8:
                    5a:d9:78:d1:e3:8b:f0:73:1f
                Exponent: 65537 (0x10001)
    Signature Algorithm: md5WithRSAEncryption
         1e:4e:09:de:3e:3d:b8:02:62:e7:04:ae:5c:95:e4:3f:92:f5:
         16:c4:18:be:53:c0:a3:4a:ac:43:26:6a:80:d1:97:4c:b9:e4:
         0f:4f:44:92:19:1e:df:78:2d:bb:2d:87:be:12:bb:0e:d0:a0:
         c9:0a:37:25:9f:da:2d:6b:92:3e:52:7f:ce:9f:01:56:1c:f1:
         ca:3c:34:5d:7d:18:d0:cc:29:cd:c9:fc:69:51:51:fd:b5:92:
         c3:e1:53:c2:d0:ed:da:80:1f:28:0b:9a:c5:49:a6:8f:61:50:
         d8:73:e0:5c:4f:d4:68:9f:bb:4c:c3:01:85:ca:95:de:f8:f1:
         4c:c3
-----BEGIN CERTIFICATE-----
MIICRzCCAbACARMwDQYJKoZIhvcNAQEEBQAwTjESMBAGA1UEChMJTk9WQSBST09U
MRYwFAYDVQQHEw1Nb3VudGFpbiBWaWV3MRMwEQYDVQQIEwpDYWxpZm9ybmlhMQsw
CQYDVQQGEwJVUzAeFw0xNTAxMjcxOTMwNTFaFw0xNjAxMjcxOTMwNTFaMIGJMQsw
CQYDVQQGEwJVUzETMBEGA1UECAwKQ2FsaWZvcm5pYTESMBAGA1UECgwJT3BlblN0
YWNrMRAwDgYDVQQLDAdOb3ZhRGV2MT8wPQYDVQQDDDYyNGIwMDkwODFmYzI0MGZl
LTlmOWExMWMxYTA2NTRjN2YtMjAxNS0wMS0yN1QxOTozMDo1MVowgZ8wDQYJKoZI
hvcNAQEBBQADgY0AMIGJAoGBAMmkycVLk8ta3ySwTWq9055di+8ZMLvhE4HTfbXE
7vLfbwwXr9KCQEUSSFzzHM4E+InmRPeJryF/0ReaIND3pM9zZf6Jv2VoLlvHfd3q
dljYvRpc0D+uNpXviWwQvBpGs2GKUyEPtxLVx/0gmjT4PRp/hGCPAuqoWtl40eOL
8HMfAgMBAAEwDQYJKoZIhvcNAQEEBQADgYEAHk4J3j49uAJi5wSuXJXkP5L1FsQY
vlPAo0qsQyZqgNGXTLnkD09Ekhke33gtuy2HvhK7DtCgyQo3JZ/aLWuSPlJ/zp8B
Vhzxyjw0XX0Y0Mwpzcn8aVFR/bWSw+FTwtDt2oAfKAuaxUmmj2FQ2HPgXE/UaJ+7
TMMBhcqV3vjxTMM=
-----END CERTIFICATE-----
