Certificate:
    Data:
        Version: 1 (0x0)
        Serial Number: 16 (0x10)
    Signature Algorithm: md5WithRSAEncryption
        Issuer: O=NOVA ROOT, L=Mountain View, ST=California, C=US
        Validity
            Not Before: Jan 27 19:30:41 2015 GMT
            Not After : Jan 27 19:30:41 2016 GMT
        Subject: C=US, ST=California, O=OpenStack, OU=NovaDev, CN=5885ecb67f0941be-0c71ab741f9d42f5-2015-01-27T19:30:41Z
        Subject Public Key Info:
            Public Key Algorithm: rsaEncryption
                Public-Key: (1024 bit)
                Modulus:
                    00:c0:16:48:3f:08:3b:25:57:8c:94:ea:94:5a:f2:
                    5e:03:c2:a0:b5:62:26:57:b6:52:c7:b4:2d:24:74:
                    5a:72:bd:e1:d1:4a:e1:e8:ca:4f:0a:4f:9a:15:d8:
                    db:ff:91:8e:6d:60:3b:c6:c3:e6:0a:f2:b5:8b:63:
                    0a:b7:ac:06:5e:aa:d4:9e:f7:ca:ce:e6:0d:40:19:
                    cd:1c:f1:a7:77:d3:17:5f:cf:59:cb:09:bb:28:13:
                    18:c4:49:88:c4:d3:30:64:64:90:b0:7a:3d:01:57:
                    58:44:54:cd:09:e2:3b:17:3d:fc:c8:d9:7d:f3:d6:
                    dc:f1:8d:0a:9f:65:42:40:93
                Exponent: 65537 (0x10001)
    Signature Algorithm: md5WithRSAEncryption
         37:9e:fe:31:a5:9e:eb:ce:a4:b3:4b:67:7c:9b:a7:13:7f:42:
         e9:6c:43:12:00:54:56:4c:c3:88:45:ca:29:5e:fb:1c:e6:c0:
         0a:fa:96:24:74:47:69:09:a4:c6:9b:57:fe:f1:64:c8:37:91:
         d1:67:06:c7:b0:04:19:fb:91:f4:00:b8:67:14:c8:7f:64:c2:
         e3:cd:2c:63:7a:a1:31:f0:1f:92:7f:78:69:29:ec:66:e4:63:
         fd:67:b6:19:92:a9:79:ef:98:ae:22:6c:db:f0:72:6e:91:ba:
         19:8e:fe:31:a2:8a:ec:1d:f0:45:13:14:b9:ce:5f:c7:d3:76:
         d7:5a
-----BEGIN CERTIFICATE-----
MIICRzCCAbACARAwDQYJKoZIhvcNAQEEBQAwTjESMBAGA1UEChMJTk9WQSBST09U
MRYwFAYDVQQHEw1Nb3VudGFpbiBWaWV3MRMwEQYDVQQIEwpDYWxpZm9ybmlhMQsw
CQYDVQQGEwJVUzAeFw0xNTAxMjcxOTMwNDFaFw0xNjAxMjcxOTMwNDFaMIGJMQsw
CQYDVQQGEwJVUzETMBEGA1UECAwKQ2FsaWZvcm5pYTESMBAGA1UECgwJT3BlblN0
YWNrMRAwDgYDVQQLDAdOb3ZhRGV2MT8wPQYDVQQDDDY1ODg1ZWNiNjdmMDk0MWJl
LTBjNzFhYjc0MWY5ZDQyZjUtMjAxNS0wMS0yN1QxOTozMDo0MVowgZ8wDQYJKoZI
hvcNAQEBBQADgY0AMIGJAoGBAMAWSD8IOyVXjJTqlFryXgPCoLViJle2Use0LSR0
WnK94dFK4ejKTwpPmhXY2/+Rjm1gO8bD5grytYtjCresBl6q1J73ys7mDUAZzRzx
p3fTF1/PWcsJuygTGMRJiMTTMGRkkLB6PQFXWERUzQniOxc9/MjZffPW3PGNCp9l
QkCTAgMBAAEwDQYJKoZIhvcNAQEEBQADgYEAN57+MaWe686ks0tnfJunE39C6WxD
EgBUVkzDiEXKKV77HObACvqWJHRHaQmkxptX/vFkyDeR0WcGx7AEGfuR9AC4ZxTI
f2TC480sY3qhMfAfkn94aSnsZuRj/We2GZKpee+YriJs2/BybpG6GY7+MaKK7B3w
RRMUuc5fx9N211o=
-----END CERTIFICATE-----
