Certificate:
    Data:
        Version: 1 (0x0)
        Serial Number: 17 (0x11)
    Signature Algorithm: md5WithRSAEncryption
        Issuer: O=NOVA ROOT, L=Mountain View, ST=California, C=US
        Validity
            Not Before: Jan 27 19:30:45 2015 GMT
            Not After : Jan 27 19:30:45 2016 GMT
        Subject: C=US, ST=California, O=OpenStack, OU=NovaDev, CN=469a431bc9f6453e-d6065fb5501b4bd3-2015-01-27T19:30:45Z
        Subject Public Key Info:
            Public Key Algorithm: rsaEncryption
                Public-Key: (1024 bit)
                Modulus:
                    00:d7:b5:9a:e2:1d:47:d1:75:e4:a7:41:c1:8d:05:
                    ce:df:d2:42:a8:0e:d2:de:a9:70:c6:b6:c2:b9:4a:
                    36:58:e6:ab:d7:9d:d0:c3:5b:01:88:33:ad:9f:be:
                    1d:69:0a:ac:f4:36:07:73:74:91:9b:ec:4e:95:1d:
                    53:c6:1a:4b:63:ff:c2:8c:24:d9:98:1c:00:7e:f2:
                    c3:0a:48:0a:2f:f9:19:cd:ba:f6:70:c6:29:d5:24:
                    7f:db:3e:f5:a4:0c:fc:6a:86:ad:4e:58:0f:9a:df:
                    96:68:1e:b3:35:01:7b:15:55:63:aa:5d:a2:fd:d0:
                    e8:46:42:8e:2e:e2:29:52:cb
                Exponent: 65537 (0x10001)
    Signature Algorithm: md5WithRSAEncryption
         71:27:78:96:dc:15:89:73:e1:99:a5:af:88:f2:eb:b2:eb:66:
         11:c9:be:d8:fa:e6:3e:39:6f:48:c6:f8:75:45:72:67:d6:e5:
         8b:67:64:41:8c:87:1b:ce:f5:67:53:3b:ae:d7:21:38:6a:91:
         02:21:c6:d9:ef:dc:82:db:f5:ac:4c:91:a5:d4:2b:c3:55:de:
         1d:5a:d2:4b:fc:54:ea:04:a7:ea:a4:7c:38:06:16:1f:de:14:
         24:cc:8d:09:de:dc:86:80:1d:c9:7f:e8:f3:aa:a8:05:32:f0:
         1f:f0:d2:61:6a:63:0f:4b:61:79:6b:ad:aa:40:86:ba:9d:42:
         a9:c8
-----BEGIN CERTIFICATE-----
MIICRzCCAbACAREwDQYJKoZIhvcNAQEEBQAwTjESMBAGA1UEChMJTk9WQSBST09U
MRYwFAYDVQQHEw1Nb3VudGFpbiBWaWV3MRMwEQYDVQQIEwpDYWxpZm9ybmlhMQsw
CQYDVQQGEwJVUzAeFw0xNTAxMjcxOTMwNDVaFw0xNjAxMjcxOTMwNDVaMIGJMQsw
CQYDVQQGEwJVUzETMBEGA1UECAwKQ2FsaWZvcm5pYTESMBAGA1UECgwJT3BlblN0
YWNrMRAwDgYDVQQLDAdOb3ZhRGV2MT8wPQYDVQQDDDY0NjlhNDMxYmM5ZjY0NTNl
LWQ2MDY1ZmI1NTAxYjRiZDMtMjAxNS0wMS0yN1QxOTozMDo0NVowgZ8wDQYJKoZI
hvcNAQEBBQADgY0AMIGJAoGBANe1muIdR9F15KdBwY0Fzt/SQqgO0t6pcMa2wrlK
Nljmq9ed0MNbAYgzrZ++HWkKrPQ2B3N0kZvsTpUdU8YaS2P/wowk2ZgcAH7ywwpI
Ci/5Gc269nDGKdUkf9s+9aQM/GqGrU5YD5rflmgeszUBexVVY6pdov3Q6EZCji7i
KVLLAgMBAAEwDQYJKoZIhvcNAQEEBQADgYEAcSd4ltwViXPhmaWviPLrsutmEcm+
2PrmPjlvSMb4dUVyZ9bli2dkQYyHG871Z1M7rtchOGqRAiHG2e/cgtv1rEyRpdQr
w1XeHVrSS/xU6gSn6qR8OAYWH94UJMyNCd7choAdyX/o86qoBTLwH/DSYWpjD0th
eWutqkCGup1Cqcg=
-----END CERTIFICATE-----
